target datalayout = "e-m:e-p270:32:32-p271:32:32-p272:64:64-i64:64-i128:128-f80:128-n8:16:32:64-S128"
target triple = "x86_64-unknown-linux-gnu"

%"class.icu_75::UObject" = type { ptr }
%"class.icu_75::UnicodeString" = type { %"class.icu_75::Replaceable", %"union.icu_75::UnicodeString::StackBufferOrFields" }
%"class.icu_75::Replaceable" = type { %"class.icu_75::UObject" }
%"union.icu_75::UnicodeString::StackBufferOrFields" = type { %struct.anon.0, [32 x i8] }
%struct.anon.0 = type { i16, i32, i32, ptr }
%"class.icu_75::FixedDecimal" = type { %"class.icu_75::IFixedDecimal", %"class.icu_75::UObject", double, i32, i64, i64, i64, i32, i8, i8, i8, i8 }
%"class.icu_75::IFixedDecimal" = type { ptr }

@_ZN6icu_7512FixedDecimalC1Ed = unnamed_addr alias void (ptr, double), ptr @_ZN6icu_7512FixedDecimalC2Ed
@_ZN6icu_7512FixedDecimalD1Ev = unnamed_addr alias void (ptr), ptr @_ZN6icu_7512FixedDecimalD2Ev

; Function Attrs: mustprogress uwtable
define void @_ZNK6icu_7511PluralRules6selectEd(ptr noalias sret(%"class.icu_75::UnicodeString") align 8 %agg.result, ptr noundef nonnull align 8 dereferenceable(28) %this, double noundef %number) #1 align 2 personality ptr @__gxx_personality_v0 {
entry:
  %result.ptr = alloca ptr, align 8
  %this.addr = alloca ptr, align 8
  %number.addr = alloca double, align 8
  %ref.tmp = alloca %"class.icu_75::FixedDecimal", align 8
  %exn.slot = alloca ptr, align 8
  %ehselector.slot = alloca i32, align 4
  store ptr %agg.result, ptr %result.ptr, align 8
  store ptr %this, ptr %this.addr, align 8
  store double %number, ptr %number.addr, align 8
  %this1 = load ptr, ptr %this.addr, align 8
  %0 = load double, ptr %number.addr, align 8
  call void @_ZN6icu_7512FixedDecimalC1Ed(ptr noundef nonnull align 8 dereferenceable(64) %ref.tmp, double noundef %0)
  invoke void @_ZNK6icu_7511PluralRules6selectERKNS_13IFixedDecimalE(ptr sret(%"class.icu_75::UnicodeString") align 8 %agg.result, ptr noundef nonnull align 8 dereferenceable(28) %this1, ptr noundef nonnull align 8 dereferenceable(8) %ref.tmp)
          to label %invoke.cont unwind label %lpad

invoke.cont:                                      ; preds = %entry
  call void @_ZN6icu_7512FixedDecimalD1Ev(ptr noundef nonnull align 8 dereferenceable(64) %ref.tmp) #13
  ret void

lpad:                                             ; preds = %entry
  %1 = landingpad { ptr, i32 }
          cleanup
  %2 = extractvalue { ptr, i32 } %1, 0
  store ptr %2, ptr %exn.slot, align 8
  %3 = extractvalue { ptr, i32 } %1, 1
  store i32 %3, ptr %ehselector.slot, align 4
  call void @_ZN6icu_7512FixedDecimalD1Ev(ptr noundef nonnull align 8 dereferenceable(64) %ref.tmp) #13
  br label %eh.resume

eh.resume:                                        ; preds = %lpad
  %exn = load ptr, ptr %exn.slot, align 8
  %sel = load i32, ptr %ehselector.slot, align 4
  %lpad.val = insertvalue { ptr, i32 } poison, ptr %exn, 0
  %lpad.val2 = insertvalue { ptr, i32 } %lpad.val, i32 %sel, 1
  resume { ptr, i32 } %lpad.val2
}