; Function Attrs: mustprogress uwtable
define void @_ZNK6icu_7511PluralRules6selectEd(ptr noalias sret(%"class.icu_75::UnicodeString") align 8 %agg.result, ptr nocapture noundef nonnull readonly align 8 dereferenceable(28) %this, double noundef %number) local_unnamed_addr #1 align 2 personality ptr @__gxx_personality_v0 {
entry:
  %ref.tmp = alloca %"class.icu_75::FixedDecimal", align 8
  call void @_ZN6icu_7512FixedDecimalC1Ed(ptr noundef nonnull align 8 dereferenceable(64) %ref.tmp, double noundef %number)
  invoke void @_ZNK6icu_7511PluralRules6selectERKNS_13IFixedDecimalE(ptr sret(%"class.icu_75::UnicodeString") align 8 %agg.result, ptr noundef nonnull align 8 dereferenceable(28) %this, ptr noundef nonnull align 8 dereferenceable(8) %ref.tmp)
          to label %invoke.cont unwind label %lpad

invoke.cont:                                      ; preds = %entry
  call void @_ZN6icu_7512FixedDecimalD1Ev(ptr noundef nonnull align 8 dereferenceable(64) %ref.tmp) #25
  ret void

lpad:                                             ; preds = %entry
  %0 = landingpad { ptr, i32 }
          cleanup
  call void @_ZN6icu_7512FixedDecimalD1Ev(ptr noundef nonnull align 8 dereferenceable(64) %ref.tmp) #25
  resume { ptr, i32 } %0
}